target datalayout = "e-m:e-p270:32:32-p271:32:32-p272:64:64-i64:64-i128:128-f80:128-n8:16:32:64-S128"
target triple = "x86_64-pc-linux-gnu"

%struct.Matrix = type { float, float, float, float, float, float, float, float, float, float, float, float, float, float, float, float }
%struct.Point = type { i32, i32 }
%struct.Size = type { i32, i32 }
%struct.PlatformData = type { ptr }
%struct.anon.6 = type { ptr, i32, i8, i8, i8, i8, i8, i8, %struct.Point, %struct.Point, %struct.Size, %struct.Size, %struct.Size, %struct.Size, %struct.Size, %struct.Point, %struct.Size, %struct.Size, %struct.Matrix, ptr, i32 }

@platform = internal global %struct.PlatformData zeroinitializer, align 8
@.str.119 = private unnamed_addr constant [85 x i8] c"WINDOW: Framebuffer transparency can only be configured before window initialization\00", align 1
@.str.120 = private unnamed_addr constant [69 x i8] c"WINDOW: High DPI can only be configured before window initialization\00", align 1
@.str.121 = private unnamed_addr constant [65 x i8] c"WINDOW: MSAA can only be configured before window initialization\00", align 1
@.str.122 = private unnamed_addr constant [73 x i8] c"RPI: Interlaced mode can only be configured before window initialization\00", align 1

; Function Attrs: nounwind uwtable
define void @RestoreWindow() #0 {
  %1 = load ptr, ptr @platform, align 8
  %2 = call i32 @glfwGetWindowAttrib(ptr noundef %1, i32 noundef 131075)
  %3 = icmp eq i32 %2, 1
  br i1 %3, label %4, label %10

4:                                                ; preds = %0
  %5 = load ptr, ptr @platform, align 8
  call void @glfwRestoreWindow(ptr noundef %5)
  %6 = load i32, ptr getelementptr inbounds nuw (%struct.anon.6, ptr @CORE, i32 0, i32 1), align 8
  %7 = and i32 %6, -513
  store i32 %7, ptr getelementptr inbounds nuw (%struct.anon.6, ptr @CORE, i32 0, i32 1), align 8
  %8 = load i32, ptr getelementptr inbounds nuw (%struct.anon.6, ptr @CORE, i32 0, i32 1), align 8
  %9 = and i32 %8, -1025
  store i32 %9, ptr getelementptr inbounds nuw (%struct.anon.6, ptr @CORE, i32 0, i32 1), align 8
  br label %10

10:                                               ; preds = %4, %0
  ret void
}

; Function Attrs: nounwind uwtable
define void @ClearWindowState(i32 noundef %0) #0 {
  %2 = alloca i32, align 4
  store i32 %0, ptr %2, align 4
  %3 = load i32, ptr getelementptr inbounds nuw (%struct.anon.6, ptr @CORE, i32 0, i32 1), align 8
  %4 = and i32 %3, 64
  %5 = icmp ugt i32 %4, 0
  br i1 %5, label %6, label %13

6:                                                ; preds = %1
  %7 = load i32, ptr %2, align 4
  %8 = and i32 %7, 64
  %9 = icmp ugt i32 %8, 0
  br i1 %9, label %10, label %13

10:                                               ; preds = %6
  call void @glfwSwapInterval(i32 noundef 0)
  %11 = load i32, ptr getelementptr inbounds nuw (%struct.anon.6, ptr @CORE, i32 0, i32 1), align 8
  %12 = and i32 %11, -65
  store i32 %12, ptr getelementptr inbounds nuw (%struct.anon.6, ptr @CORE, i32 0, i32 1), align 8
  br label %13

13:                                               ; preds = %10, %6, %1
  %14 = load i32, ptr getelementptr inbounds nuw (%struct.anon.6, ptr @CORE, i32 0, i32 1), align 8
  %15 = and i32 %14, 32768
  %16 = icmp ugt i32 %15, 0
  br i1 %16, label %17, label %22

17:                                               ; preds = %13
  %18 = load i32, ptr %2, align 4
  %19 = and i32 %18, 32768
  %20 = icmp ugt i32 %19, 0
  br i1 %20, label %21, label %22

21:                                               ; preds = %17
  call void @ToggleBorderlessWindowed()
  br label %22

22:                                               ; preds = %21, %17, %13
  %23 = load i32, ptr getelementptr inbounds nuw (%struct.anon.6, ptr @CORE, i32 0, i32 1), align 8
  %24 = and i32 %23, 2
  %25 = icmp ugt i32 %24, 0
  br i1 %25, label %26, label %31

26:                                               ; preds = %22
  %27 = load i32, ptr %2, align 4
  %28 = and i32 %27, 2
  %29 = icmp ugt i32 %28, 0
  br i1 %29, label %30, label %31

30:                                               ; preds = %26
  call void @ToggleFullscreen()
  br label %31

31:                                               ; preds = %30, %26, %22
  %32 = load i32, ptr getelementptr inbounds nuw (%struct.anon.6, ptr @CORE, i32 0, i32 1), align 8
  %33 = and i32 %32, 4
  %34 = icmp ugt i32 %33, 0
  br i1 %34, label %35, label %43

35:                                               ; preds = %31
  %36 = load i32, ptr %2, align 4
  %37 = and i32 %36, 4
  %38 = icmp ugt i32 %37, 0
  br i1 %38, label %39, label %43

39:                                               ; preds = %35
  %40 = load ptr, ptr @platform, align 8
  call void @glfwSetWindowAttrib(ptr noundef %40, i32 noundef 131075, i32 noundef 0)
  %41 = load i32, ptr getelementptr inbounds nuw (%struct.anon.6, ptr @CORE, i32 0, i32 1), align 8
  %42 = and i32 %41, -5
  store i32 %42, ptr getelementptr inbounds nuw (%struct.anon.6, ptr @CORE, i32 0, i32 1), align 8
  br label %43

43:                                               ; preds = %39, %35, %31
  %44 = load i32, ptr getelementptr inbounds nuw (%struct.anon.6, ptr @CORE, i32 0, i32 1), align 8
  %45 = and i32 %44, 128
  %46 = icmp ugt i32 %45, 0
  br i1 %46, label %47, label %55

47:                                               ; preds = %43
  %48 = load i32, ptr %2, align 4
  %49 = and i32 %48, 128
  %50 = icmp ugt i32 %49, 0
  br i1 %50, label %51, label %55

51:                                               ; preds = %47
  %52 = load ptr, ptr @platform, align 8
  call void @glfwShowWindow(ptr noundef %52)
  %53 = load i32, ptr getelementptr inbounds nuw (%struct.anon.6, ptr @CORE, i32 0, i32 1), align 8
  %54 = and i32 %53, -129
  store i32 %54, ptr getelementptr inbounds nuw (%struct.anon.6, ptr @CORE, i32 0, i32 1), align 8
  br label %55

55:                                               ; preds = %51, %47, %43
  %56 = load i32, ptr getelementptr inbounds nuw (%struct.anon.6, ptr @CORE, i32 0, i32 1), align 8
  %57 = and i32 %56, 512
  %58 = icmp ugt i32 %57, 0
  br i1 %58, label %59, label %64

59:                                               ; preds = %55
  %60 = load i32, ptr %2, align 4
  %61 = and i32 %60, 512
  %62 = icmp ugt i32 %61, 0
  br i1 %62, label %63, label %64

63:                                               ; preds = %59
  call void @RestoreWindow()
  br label %64

64:                                               ; preds = %63, %59, %55
  %65 = load i32, ptr getelementptr inbounds nuw (%struct.anon.6, ptr @CORE, i32 0, i32 1), align 8
  %66 = and i32 %65, 1024
  %67 = icmp ugt i32 %66, 0
  br i1 %67, label %68, label %73

68:                                               ; preds = %64
  %69 = load i32, ptr %2, align 4
  %70 = and i32 %69, 1024
  %71 = icmp ugt i32 %70, 0
  br i1 %71, label %72, label %73

72:                                               ; preds = %68
  call void @RestoreWindow()
  br label %73

73:                                               ; preds = %72, %68, %64
  %74 = load i32, ptr getelementptr inbounds nuw (%struct.anon.6, ptr @CORE, i32 0, i32 1), align 8
  %75 = and i32 %74, 8
  %76 = icmp ugt i32 %75, 0
  br i1 %76, label %77, label %85

77:                                               ; preds = %73
  %78 = load i32, ptr %2, align 4
  %79 = and i32 %78, 8
  %80 = icmp ugt i32 %79, 0
  br i1 %80, label %81, label %85

81:                                               ; preds = %77
  %82 = load ptr, ptr @platform, align 8
  call void @glfwSetWindowAttrib(ptr noundef %82, i32 noundef 131077, i32 noundef 1)
  %83 = load i32, ptr getelementptr inbounds nuw (%struct.anon.6, ptr @CORE, i32 0, i32 1), align 8
  %84 = and i32 %83, -9
  store i32 %84, ptr getelementptr inbounds nuw (%struct.anon.6, ptr @CORE, i32 0, i32 1), align 8
  br label %85

85:                                               ; preds = %81, %77, %73
  %86 = load i32, ptr getelementptr inbounds nuw (%struct.anon.6, ptr @CORE, i32 0, i32 1), align 8
  %87 = and i32 %86, 2048
  %88 = icmp ugt i32 %87, 0
  br i1 %88, label %89, label %97

89:                                               ; preds = %85
  %90 = load i32, ptr %2, align 4
  %91 = and i32 %90, 2048
  %92 = icmp ugt i32 %91, 0
  br i1 %92, label %93, label %97

93:                                               ; preds = %89
  %94 = load ptr, ptr @platform, align 8
  call void @glfwSetWindowAttrib(ptr noundef %94, i32 noundef 131084, i32 noundef 1)
  %95 = load i32, ptr getelementptr inbounds nuw (%struct.anon.6, ptr @CORE, i32 0, i32 1), align 8
  %96 = and i32 %95, -2049
  store i32 %96, ptr getelementptr inbounds nuw (%struct.anon.6, ptr @CORE, i32 0, i32 1), align 8
  br label %97

97:                                               ; preds = %93, %89, %85
  %98 = load i32, ptr getelementptr inbounds nuw (%struct.anon.6, ptr @CORE, i32 0, i32 1), align 8
  %99 = and i32 %98, 4096
  %100 = icmp ugt i32 %99, 0
  br i1 %100, label %101, label %109

101:                                              ; preds = %97
  %102 = load i32, ptr %2, align 4
  %103 = and i32 %102, 4096
  %104 = icmp ugt i32 %103, 0
  br i1 %104, label %105, label %109

105:                                              ; preds = %101
  %106 = load ptr, ptr @platform, align 8
  call void @glfwSetWindowAttrib(ptr noundef %106, i32 noundef 131079, i32 noundef 0)
  %107 = load i32, ptr getelementptr inbounds nuw (%struct.anon.6, ptr @CORE, i32 0, i32 1), align 8
  %108 = and i32 %107, -4097
  store i32 %108, ptr getelementptr inbounds nuw (%struct.anon.6, ptr @CORE, i32 0, i32 1), align 8
  br label %109

109:                                              ; preds = %105, %101, %97
  %110 = load i32, ptr getelementptr inbounds nuw (%struct.anon.6, ptr @CORE, i32 0, i32 1), align 8
  %111 = and i32 %110, 256
  %112 = icmp ugt i32 %111, 0
  br i1 %112, label %113, label %120

113:                                              ; preds = %109
  %114 = load i32, ptr %2, align 4
  %115 = and i32 %114, 256
  %116 = icmp ugt i32 %115, 0
  br i1 %116, label %117, label %120

117:                                              ; preds = %113
  %118 = load i32, ptr getelementptr inbounds nuw (%struct.anon.6, ptr @CORE, i32 0, i32 1), align 8
  %119 = and i32 %118, -257
  store i32 %119, ptr getelementptr inbounds nuw (%struct.anon.6, ptr @CORE, i32 0, i32 1), align 8
  br label %120

120:                                              ; preds = %117, %113, %109
  %121 = load i32, ptr getelementptr inbounds nuw (%struct.anon.6, ptr @CORE, i32 0, i32 1), align 8
  %122 = and i32 %121, 16
  %123 = icmp ugt i32 %122, 0
  br i1 %123, label %124, label %129

124:                                              ; preds = %120
  %125 = load i32, ptr %2, align 4
  %126 = and i32 %125, 16
  %127 = icmp ugt i32 %126, 0
  br i1 %127, label %128, label %129

128:                                              ; preds = %124
  call void (i32, ptr, ...) @TraceLog(i32 noundef 4, ptr noundef @.str.119)
  br label %129

129:                                              ; preds = %128, %124, %120
  %130 = load i32, ptr getelementptr inbounds nuw (%struct.anon.6, ptr @CORE, i32 0, i32 1), align 8
  %131 = and i32 %130, 8192
  %132 = icmp ugt i32 %131, 0
  br i1 %132, label %133, label %138

133:                                              ; preds = %129
  %134 = load i32, ptr %2, align 4
  %135 = and i32 %134, 8192
  %136 = icmp ugt i32 %135, 0
  br i1 %136, label %137, label %138

137:                                              ; preds = %133
  call void (i32, ptr, ...) @TraceLog(i32 noundef 4, ptr noundef @.str.120)
  br label %138

138:                                              ; preds = %137, %133, %129
  %139 = load i32, ptr getelementptr inbounds nuw (%struct.anon.6, ptr @CORE, i32 0, i32 1), align 8
  %140 = and i32 %139, 16384
  %141 = icmp ugt i32 %140, 0
  br i1 %141, label %142, label %150

142:                                              ; preds = %138
  %143 = load i32, ptr %2, align 4
  %144 = and i32 %143, 16384
  %145 = icmp ugt i32 %144, 0
  br i1 %145, label %146, label %150

146:                                              ; preds = %142
  %147 = load ptr, ptr @platform, align 8
  call void @glfwSetWindowAttrib(ptr noundef %147, i32 noundef 131085, i32 noundef 0)
  %148 = load i32, ptr getelementptr inbounds nuw (%struct.anon.6, ptr @CORE, i32 0, i32 1), align 8
  %149 = and i32 %148, -16385
  store i32 %149, ptr getelementptr inbounds nuw (%struct.anon.6, ptr @CORE, i32 0, i32 1), align 8
  br label %150

150:                                              ; preds = %146, %142, %138
  %151 = load i32, ptr getelementptr inbounds nuw (%struct.anon.6, ptr @CORE, i32 0, i32 1), align 8
  %152 = and i32 %151, 32
  %153 = icmp ugt i32 %152, 0
  br i1 %153, label %154, label %159

154:                                              ; preds = %150
  %155 = load i32, ptr %2, align 4
  %156 = and i32 %155, 32
  %157 = icmp ugt i32 %156, 0
  br i1 %157, label %158, label %159

158:                                              ; preds = %154
  call void (i32, ptr, ...) @TraceLog(i32 noundef 4, ptr noundef @.str.121)
  br label %159

159:                                              ; preds = %158, %154, %150
  %160 = load i32, ptr getelementptr inbounds nuw (%struct.anon.6, ptr @CORE, i32 0, i32 1), align 8
  %161 = and i32 %160, 65536
  %162 = icmp ugt i32 %161, 0
  br i1 %162, label %163, label %168

163:                                              ; preds = %159
  %164 = load i32, ptr %2, align 4
  %165 = and i32 %164, 65536
  %166 = icmp ugt i32 %165, 0
  br i1 %166, label %167, label %168

167:                                              ; preds = %163
  call void (i32, ptr, ...) @TraceLog(i32 noundef 4, ptr noundef @.str.122)
  br label %168

168:                                              ; preds = %167, %163, %159
  ret void
}