; Function Attrs: nounwind uwtable
define void @ClearWindowState(i32 noundef %0) local_unnamed_addr #0 {
  %2 = load i32, ptr getelementptr inbounds nuw (i8, ptr @CORE, i64 8), align 8
  %3 = and i32 %0, 64
  %4 = and i32 %3, %2
  %or.cond.not.not = icmp eq i32 %4, 0
  br i1 %or.cond.not.not, label %8, label %5

5:                                                ; preds = %1
  tail call void @glfwSwapInterval(i32 noundef 0) #56
  %6 = load i32, ptr getelementptr inbounds nuw (i8, ptr @CORE, i64 8), align 8
  %7 = and i32 %6, -65
  store i32 %7, ptr getelementptr inbounds nuw (i8, ptr @CORE, i64 8), align 8
  br label %8

8:                                                ; preds = %5, %1
  %9 = phi i32 [ %7, %5 ], [ %2, %1 ]
  %10 = and i32 %0, 32768
  %11 = and i32 %10, %9
  %or.cond47.not.not = icmp eq i32 %11, 0
  br i1 %or.cond47.not.not, label %13, label %12

12:                                               ; preds = %8
  tail call void @ToggleBorderlessWindowed()
  %.pre = load i32, ptr getelementptr inbounds nuw (i8, ptr @CORE, i64 8), align 8
  br label %13

13:                                               ; preds = %12, %8
  %14 = phi i32 [ %.pre, %12 ], [ %9, %8 ]
  %15 = and i32 %0, 2
  %16 = and i32 %15, %14
  %or.cond48.not.not = icmp eq i32 %16, 0
  br i1 %or.cond48.not.not, label %18, label %17

17:                                               ; preds = %13
  tail call void @ToggleFullscreen()
  %.pre63 = load i32, ptr getelementptr inbounds nuw (i8, ptr @CORE, i64 8), align 8
  br label %18

18:                                               ; preds = %17, %13
  %19 = phi i32 [ %.pre63, %17 ], [ %14, %13 ]
  %20 = and i32 %0, 4
  %21 = and i32 %20, %19
  %or.cond49.not.not = icmp eq i32 %21, 0
  br i1 %or.cond49.not.not, label %26, label %22

22:                                               ; preds = %18
  %23 = load ptr, ptr @platform.0, align 8
  tail call void @glfwSetWindowAttrib(ptr noundef %23, i32 noundef 131075, i32 noundef 0) #56
  %24 = load i32, ptr getelementptr inbounds nuw (i8, ptr @CORE, i64 8), align 8
  %25 = and i32 %24, -5
  store i32 %25, ptr getelementptr inbounds nuw (i8, ptr @CORE, i64 8), align 8
  br label %26

26:                                               ; preds = %22, %18
  %27 = phi i32 [ %25, %22 ], [ %19, %18 ]
  %28 = and i32 %0, 128
  %29 = and i32 %28, %27
  %or.cond50.not.not = icmp eq i32 %29, 0
  br i1 %or.cond50.not.not, label %34, label %30

30:                                               ; preds = %26
  %31 = load ptr, ptr @platform.0, align 8
  tail call void @glfwShowWindow(ptr noundef %31) #56
  %32 = load i32, ptr getelementptr inbounds nuw (i8, ptr @CORE, i64 8), align 8
  %33 = and i32 %32, -129
  store i32 %33, ptr getelementptr inbounds nuw (i8, ptr @CORE, i64 8), align 8
  br label %34

34:                                               ; preds = %30, %26
  %35 = phi i32 [ %33, %30 ], [ %27, %26 ]
  %36 = and i32 %0, 512
  %37 = and i32 %36, %35
  %or.cond51.not.not = icmp eq i32 %37, 0
  br i1 %or.cond51.not.not, label %RestoreWindow.exit, label %38

38:                                               ; preds = %34
  %39 = load ptr, ptr @platform.0, align 8
  %40 = tail call i32 @glfwGetWindowAttrib(ptr noundef %39, i32 noundef 131075) #56
  %41 = icmp eq i32 %40, 1
  br i1 %41, label %42, label %.RestoreWindow.exit_crit_edge

.RestoreWindow.exit_crit_edge:                    ; preds = %38
  %.pre64 = load i32, ptr getelementptr inbounds nuw (i8, ptr @CORE, i64 8), align 8
  br label %RestoreWindow.exit

42:                                               ; preds = %38
  %43 = load ptr, ptr @platform.0, align 8
  tail call void @glfwRestoreWindow(ptr noundef %43) #56
  %44 = load i32, ptr getelementptr inbounds nuw (i8, ptr @CORE, i64 8), align 8
  %45 = and i32 %44, -1537
  store i32 %45, ptr getelementptr inbounds nuw (i8, ptr @CORE, i64 8), align 8
  br label %RestoreWindow.exit

RestoreWindow.exit:                               ; preds = %.RestoreWindow.exit_crit_edge, %42, %34
  %46 = phi i32 [ %.pre64, %.RestoreWindow.exit_crit_edge ], [ %45, %42 ], [ %35, %34 ]
  %47 = and i32 %0, 1024
  %48 = and i32 %47, %46
  %or.cond52.not.not = icmp eq i32 %48, 0
  br i1 %or.cond52.not.not, label %RestoreWindow.exit62, label %49

49:                                               ; preds = %RestoreWindow.exit
  %50 = load ptr, ptr @platform.0, align 8
  %51 = tail call i32 @glfwGetWindowAttrib(ptr noundef %50, i32 noundef 131075) #56
  %52 = icmp eq i32 %51, 1
  br i1 %52, label %53, label %.RestoreWindow.exit62_crit_edge

.RestoreWindow.exit62_crit_edge:                  ; preds = %49
  %.pre65 = load i32, ptr getelementptr inbounds nuw (i8, ptr @CORE, i64 8), align 8
  br label %RestoreWindow.exit62

53:                                               ; preds = %49
  %54 = load ptr, ptr @platform.0, align 8
  tail call void @glfwRestoreWindow(ptr noundef %54) #56
  %55 = load i32, ptr getelementptr inbounds nuw (i8, ptr @CORE, i64 8), align 8
  %56 = and i32 %55, -1537
  store i32 %56, ptr getelementptr inbounds nuw (i8, ptr @CORE, i64 8), align 8
  br label %RestoreWindow.exit62

RestoreWindow.exit62:                             ; preds = %.RestoreWindow.exit62_crit_edge, %53, %RestoreWindow.exit
  %57 = phi i32 [ %.pre65, %.RestoreWindow.exit62_crit_edge ], [ %56, %53 ], [ %46, %RestoreWindow.exit ]
  %58 = and i32 %0, 8
  %59 = and i32 %58, %57
  %or.cond53.not.not = icmp eq i32 %59, 0
  br i1 %or.cond53.not.not, label %64, label %60

60:                                               ; preds = %RestoreWindow.exit62
  %61 = load ptr, ptr @platform.0, align 8
  tail call void @glfwSetWindowAttrib(ptr noundef %61, i32 noundef 131077, i32 noundef 1) #56
  %62 = load i32, ptr getelementptr inbounds nuw (i8, ptr @CORE, i64 8), align 8
  %63 = and i32 %62, -9
  store i32 %63, ptr getelementptr inbounds nuw (i8, ptr @CORE, i64 8), align 8
  br label %64

64:                                               ; preds = %60, %RestoreWindow.exit62
  %65 = phi i32 [ %63, %60 ], [ %57, %RestoreWindow.exit62 ]
  %66 = and i32 %0, 2048
  %67 = and i32 %66, %65
  %or.cond54.not.not = icmp eq i32 %67, 0
  br i1 %or.cond54.not.not, label %72, label %68

68:                                               ; preds = %64
  %69 = load ptr, ptr @platform.0, align 8
  tail call void @glfwSetWindowAttrib(ptr noundef %69, i32 noundef 131084, i32 noundef 1) #56
  %70 = load i32, ptr getelementptr inbounds nuw (i8, ptr @CORE, i64 8), align 8
  %71 = and i32 %70, -2049
  store i32 %71, ptr getelementptr inbounds nuw (i8, ptr @CORE, i64 8), align 8
  br label %72

72:                                               ; preds = %68, %64
  %73 = phi i32 [ %71, %68 ], [ %65, %64 ]
  %74 = and i32 %0, 4096
  %75 = and i32 %74, %73
  %or.cond55.not.not = icmp eq i32 %75, 0
  br i1 %or.cond55.not.not, label %80, label %76

76:                                               ; preds = %72
  %77 = load ptr, ptr @platform.0, align 8
  tail call void @glfwSetWindowAttrib(ptr noundef %77, i32 noundef 131079, i32 noundef 0) #56
  %78 = load i32, ptr getelementptr inbounds nuw (i8, ptr @CORE, i64 8), align 8
  %79 = and i32 %78, -4097
  store i32 %79, ptr getelementptr inbounds nuw (i8, ptr @CORE, i64 8), align 8
  br label %80

80:                                               ; preds = %76, %72
  %81 = phi i32 [ %79, %76 ], [ %73, %72 ]
  %82 = and i32 %0, 256
  %83 = and i32 %82, %81
  %or.cond56.not.not = icmp eq i32 %83, 0
  br i1 %or.cond56.not.not, label %86, label %84

84:                                               ; preds = %80
  %85 = and i32 %81, -257
  store i32 %85, ptr getelementptr inbounds nuw (i8, ptr @CORE, i64 8), align 8
  br label %86

86:                                               ; preds = %84, %80
  %87 = phi i32 [ %85, %84 ], [ %81, %80 ]
  %88 = and i32 %0, 16
  %89 = and i32 %88, %87
  %or.cond57.not.not = icmp eq i32 %89, 0
  br i1 %or.cond57.not.not, label %91, label %90

90:                                               ; preds = %86
  tail call void (i32, ptr, ...) @TraceLog(i32 noundef 4, ptr noundef nonnull @.str.119) #56
  %.pre66 = load i32, ptr getelementptr inbounds nuw (i8, ptr @CORE, i64 8), align 8
  br label %91

91:                                               ; preds = %90, %86
  %92 = phi i32 [ %.pre66, %90 ], [ %87, %86 ]
  %93 = and i32 %0, 8192
  %94 = and i32 %93, %92
  %or.cond58.not.not = icmp eq i32 %94, 0
  br i1 %or.cond58.not.not, label %96, label %95

95:                                               ; preds = %91
  tail call void (i32, ptr, ...) @TraceLog(i32 noundef 4, ptr noundef nonnull @.str.120) #56
  %.pre67 = load i32, ptr getelementptr inbounds nuw (i8, ptr @CORE, i64 8), align 8
  br label %96

96:                                               ; preds = %95, %91
  %97 = phi i32 [ %.pre67, %95 ], [ %92, %91 ]
  %98 = and i32 %0, 16384
  %99 = and i32 %98, %97
  %or.cond59.not.not = icmp eq i32 %99, 0
  br i1 %or.cond59.not.not, label %104, label %100

100:                                              ; preds = %96
  %101 = load ptr, ptr @platform.0, align 8
  tail call void @glfwSetWindowAttrib(ptr noundef %101, i32 noundef 131085, i32 noundef 0) #56
  %102 = load i32, ptr getelementptr inbounds nuw (i8, ptr @CORE, i64 8), align 8
  %103 = and i32 %102, -16385
  store i32 %103, ptr getelementptr inbounds nuw (i8, ptr @CORE, i64 8), align 8
  br label %104

104:                                              ; preds = %100, %96
  %105 = phi i32 [ %103, %100 ], [ %97, %96 ]
  %106 = and i32 %0, 32
  %107 = and i32 %106, %105
  %or.cond60.not.not = icmp eq i32 %107, 0
  br i1 %or.cond60.not.not, label %109, label %108

108:                                              ; preds = %104
  tail call void (i32, ptr, ...) @TraceLog(i32 noundef 4, ptr noundef nonnull @.str.121) #56
  %.pre68 = load i32, ptr getelementptr inbounds nuw (i8, ptr @CORE, i64 8), align 8
  br label %109

109:                                              ; preds = %108, %104
  %110 = phi i32 [ %.pre68, %108 ], [ %105, %104 ]
  %111 = and i32 %0, 65536
  %112 = and i32 %111, %110
  %or.cond61.not.not = icmp eq i32 %112, 0
  br i1 %or.cond61.not.not, label %114, label %113

113:                                              ; preds = %109
  tail call void (i32, ptr, ...) @TraceLog(i32 noundef 4, ptr noundef nonnull @.str.122) #56
  br label %114

114:                                              ; preds = %113, %109
  ret void
}